Certificate:
    Data:
        Version: 3 (0x2)
        Serial Number: 0 (0x0)
        Signature Algorithm: sha1WithRSAEncryption
        Issuer: C=RU, ST=Unknown, O=Home, OU=Unknown, CN=myCA
        Validity
            Not Before: Feb 24 12:00:01 2010 GMT
            Not After : Feb 22 12:00:01 2020 GMT
        Subject: C=RU, ST=Unknown, O=Home, OU=Unknown, CN=myCA
        Subject Public Key Info:
            Public Key Algorithm: rsaEncryption
            RSA Public Key: (1024 bit)
                Modulus (1024 bit):
                    00:ed:32:cf:37:80:0d:a6:49:99:83:45:83:e1:97:
                    62:3a:ae:32:c1:3c:7e:5e:97:c6:91:de:91:d7:fb:
                    ac:1f:28:4b:8c:7d:5d:48:22:18:e4:84:74:b3:db:
                    5e:03:8b:8c:67:71:c1:6b:f4:4d:d9:84:47:a6:d4:
                    6e:92:6b:be:80:c3:f3:aa:c9:b6:14:26:7b:c8:30:
                    37:96:3f:6c:ce:96:ca:a7:24:0b:c4:59:7d:aa:8e:
                    4f:2f:6f:3a:dd:60:4d:75:0e:20:6f:29:97:91:dd:
                    a2:b6:c2:ef:c2:20:5c:ad:d5:58:37:14:49:79:59:
                    5c:50:ae:9e:28:a7:e5:30:d7
                Exponent: 65537 (0x10001)
        X509v3 extensions:
            X509v3 Subject Key Identifier: 
                75:85:1F:E5:FA:02:62:5B:7F:EA:F6:04:5F:76:8E:C7:32:2C:F7:6C
            X509v3 Authority Key Identifier: 
                keyid:75:85:1F:E5:FA:02:62:5B:7F:EA:F6:04:5F:76:8E:C7:32:2C:F7:6C
                DirName:/C=RU/ST=Unknown/O=Home/OU=Unknown/CN=myCA
                serial:00

            X509v3 Basic Constraints: 
                CA:TRUE
    Signature Algorithm: sha1WithRSAEncryption
        c0:1b:11:c1:6c:72:8b:01:ef:84:34:ab:76:54:df:96:30:be:
        33:0a:c1:e8:7d:f6:a8:22:e7:64:9d:f7:03:97:77:e1:e8:a6:
        f2:f3:85:57:ce:fe:c3:a7:f3:b9:cc:49:17:af:b4:c0:d4:c0:
        6d:29:df:88:2a:f4:2d:80:da:23:35:2c:5f:b1:66:40:44:9e:
        06:11:45:0f:c8:0d:06:0b:d9:1c:d9:2a:61:53:cf:8c:be:77:
        cc:8d:14:ff:34:42:c2:22:51:f9:75:8b:3f:ad:34:0b:22:3b:
        45:65:1d:ce:15:70:9d:37:af:b6:e8:65:be:d8:99:90:56:f4:
        65:5c
-----BEGIN CERTIFICATE-----
MIICvjCCAiegAwIBAgIBADANBgkqhkiG9w0BAQUFADBPMQswCQYDVQQGEwJSVTEQ
MA4GA1UECBMHVW5rbm93bjENMAsGA1UEChMESG9tZTEQMA4GA1UECxMHVW5rbm93
bjENMAsGA1UEAxMEbXlDQTAeFw0xMDAyMjQxMjAwMDFaFw0yMDAyMjIxMjAwMDFa
ME8xCzAJBgNVBAYTAlJVMRAwDgYDVQQIEwdVbmtub3duMQ0wCwYDVQQKEwRIb21l
MRAwDgYDVQQLEwdVbmtub3duMQ0wCwYDVQQDEwRteUNBMIGfMA0GCSqGSIb3DQEB
AQUAA4GNADCBiQKBgQDtMs83gA2mSZmDRYPhl2I6rjLBPH5el8aR3pHX+6wfKEuM
fV1IIhjkhHSz214Di4xnccFr9E3ZhEem1G6Sa76Aw/OqybYUJnvIMDeWP2zOlsqn
JAvEWX2qjk8vbzrdYE11DiBvKZeR3aK2wu/CIFyt1Vg3FEl5WVxQrp4op+Uw1wID
AQABo4GpMIGmMB0GA1UdDgQWBBR1hR/l+gJiW3/q9gRfdo7HMiz3bDB3BgNVHSME
cDBugBR1hR/l+gJiW3/q9gRfdo7HMiz3bKFTpFEwTzELMAkGA1UEBhMCUlUxEDAO
BgNVBAgTB1Vua25vd24xDTALBgNVBAoTBEhvbWUxEDAOBgNVBAsTB1Vua25vd24x
DTALBgNVBAMTBG15Q0GCAQAwDAYDVR0TBAUwAwEB/zANBgkqhkiG9w0BAQUFAAOB
gQDAGxHBbHKLAe+ENKt2VN+WML4zCsHoffaoIudknfcDl3fh6Kby84VXzv7Dp/O5
zEkXr7TA1MBtKd+IKvQtgNojNSxfsWZARJ4GEUUPyA0GC9kc2SphU8+MvnfMjRT/
NELCIlH5dYs/rTQLIjtFZR3OFXCdN6+26GW+2JmQVvRlXA==
-----END CERTIFICATE-----
