Certificate:
    Data:
        Version: 3 (0x2)
        Serial Number: 1 (0x1)
        Signature Algorithm: sha1WithRSAEncryption
        Issuer: C=RU, ST=Unknown, O=Home, OU=Unknown, CN=myCA
        Validity
            Not Before: Feb 24 12:05:30 2010 GMT
            Not After : Feb 22 12:05:30 2020 GMT
        Subject: C=RU, ST=Unknown, O=Home, OU=Unknown, CN=center
        Subject Public Key Info:
            Public Key Algorithm: rsaEncryption
            RSA Public Key: (1024 bit)
                Modulus (1024 bit):
                    00:93:38:6f:b4:64:48:ae:a5:29:ba:f4:8a:f6:32:
                    61:8a:31:87:a6:de:08:55:8a:18:e4:11:ec:91:91:
                    f7:46:10:a4:6e:08:0b:dc:88:d8:5d:4a:6e:4d:36:
                    09:26:0f:f3:f9:5d:6f:e9:2f:96:2c:17:df:e3:a0:
                    13:08:65:df:ec:2f:e0:18:d4:a4:0c:5b:59:b0:99:
                    75:d0:33:bb:30:75:8c:c2:a4:b3:84:fc:88:b4:f8:
                    df:92:1b:71:78:6d:fb:4e:1c:dd:97:51:d9:10:61:
                    e5:a2:54:56:42:02:5e:34:11:7e:b8:b6:a1:8c:eb:
                    3e:7d:bc:9f:88:ca:d9:b9:8b
                Exponent: 65537 (0x10001)
        X509v3 extensions:
            X509v3 Basic Constraints: 
                CA:FALSE
            Netscape Comment: 
                OpenSSL Generated Certificate
            X509v3 Subject Key Identifier: 
                17:DF:BD:B6:78:77:ED:00:11:B4:62:A0:48:E7:23:91:7F:8C:08:C3
            X509v3 Authority Key Identifier: 
                keyid:75:85:1F:E5:FA:02:62:5B:7F:EA:F6:04:5F:76:8E:C7:32:2C:F7:6C

    Signature Algorithm: sha1WithRSAEncryption
        6b:83:55:dc:e7:53:ea:fa:f4:58:ee:f4:f7:77:da:18:43:0b:
        c2:69:71:5e:ac:a4:90:2f:ec:ee:ec:1f:ed:9a:a4:65:50:a9:
        74:6d:ea:4d:16:ea:1b:bb:6a:3e:f3:0a:cf:d9:9a:8b:c5:5c:
        87:46:5c:80:65:80:c4:ad:29:35:44:37:22:21:02:9c:ae:66:
        02:c3:e1:9e:a7:da:e6:9f:6f:7d:4f:b2:98:72:59:63:65:71:
        5a:cc:59:e1:c0:73:73:01:a6:b6:e9:26:53:15:79:95:6b:24:
        90:aa:95:b0:49:21:fc:6c:7c:91:c8:d1:6e:ad:a2:62:70:24:
        3c:93
-----BEGIN CERTIFICATE-----
MIICkTCCAfqgAwIBAgIBATANBgkqhkiG9w0BAQUFADBPMQswCQYDVQQGEwJSVTEQ
MA4GA1UECBMHVW5rbm93bjENMAsGA1UEChMESG9tZTEQMA4GA1UECxMHVW5rbm93
bjENMAsGA1UEAxMEbXlDQTAeFw0xMDAyMjQxMjA1MzBaFw0yMDAyMjIxMjA1MzBa
MFExCzAJBgNVBAYTAlJVMRAwDgYDVQQIEwdVbmtub3duMQ0wCwYDVQQKEwRIb21l
MRAwDgYDVQQLEwdVbmtub3duMQ8wDQYDVQQDEwZjZW50ZXIwgZ8wDQYJKoZIhvcN
AQEBBQADgY0AMIGJAoGBAJM4b7RkSK6lKbr0ivYyYYoxh6beCFWKGOQR7JGR90YQ
pG4IC9yI2F1Kbk02CSYP8/ldb+kvliwX3+OgEwhl3+wv4BjUpAxbWbCZddAzuzB1
jMKks4T8iLT435IbcXht+04c3ZdR2RBh5aJUVkICXjQRfri2oYzrPn28n4jK2bmL
AgMBAAGjezB5MAkGA1UdEwQCMAAwLAYJYIZIAYb4QgENBB8WHU9wZW5TU0wgR2Vu
ZXJhdGVkIENlcnRpZmljYXRlMB0GA1UdDgQWBBQX3722eHftABG0YqBI5yORf4wI
wzAfBgNVHSMEGDAWgBR1hR/l+gJiW3/q9gRfdo7HMiz3bDANBgkqhkiG9w0BAQUF
AAOBgQBrg1Xc51Pq+vRY7vT3d9oYQwvCaXFerKSQL+zu7B/tmqRlUKl0bepNFuob
u2o+8wrP2ZqLxVyHRlyAZYDErSk1RDciIQKcrmYCw+Gep9rmn299T7KYclljZXFa
zFnhwHNzAaa26SZTFXmVaySQqpWwSSH8bHyRyNFuraJicCQ8kw==
-----END CERTIFICATE-----
