Certificate:
    Data:
        Version: 3 (0x2)
        Serial Number: 2 (0x2)
        Signature Algorithm: sha1WithRSAEncryption
        Issuer: C=RU, ST=Unknown, O=Home, OU=Unknown, CN=myCA
        Validity
            Not Before: Feb 24 12:10:49 2010 GMT
            Not After : Feb 22 12:10:49 2020 GMT
        Subject: C=RU, ST=Unknown, O=Home, OU=Unknown, CN=balancer1
        Subject Public Key Info:
            Public Key Algorithm: rsaEncryption
            RSA Public Key: (1024 bit)
                Modulus (1024 bit):
                    00:93:67:7c:2a:c6:32:c7:22:72:ec:8e:40:4e:4b:
                    42:e1:57:7f:d3:c6:b1:16:0c:5b:4a:26:a5:d9:bd:
                    63:40:0b:67:3e:11:91:75:af:ea:1e:6d:a7:72:20:
                    29:2f:8e:cb:14:1e:c7:dd:b3:92:a0:57:10:74:5a:
                    b6:08:db:3b:07:49:60:9f:29:d8:7a:e7:d5:5d:a2:
                    40:28:0d:01:fc:df:6b:7a:02:ae:3c:5f:3f:26:25:
                    cd:c8:f3:8b:0a:83:57:68:4a:d9:65:ef:16:89:98:
                    24:9e:0c:fa:e3:92:7a:bf:3f:dd:6b:a3:c1:97:a3:
                    cb:d6:a3:56:6b:a8:ac:83:61
                Exponent: 65537 (0x10001)
        X509v3 extensions:
            X509v3 Basic Constraints: 
                CA:FALSE
            Netscape Comment: 
                OpenSSL Generated Certificate
            X509v3 Subject Key Identifier: 
                DF:8E:B0:9D:07:BA:B3:46:80:79:3F:D9:7A:61:BA:04:49:AB:47:75
            X509v3 Authority Key Identifier: 
                keyid:75:85:1F:E5:FA:02:62:5B:7F:EA:F6:04:5F:76:8E:C7:32:2C:F7:6C

    Signature Algorithm: sha1WithRSAEncryption
        66:e8:f2:65:dd:2e:b8:29:16:ca:71:fa:4f:a8:ec:e0:e5:a5:
        d9:43:66:5c:14:a8:f3:93:a9:ea:60:d7:47:46:72:9c:3d:1a:
        e5:c9:db:fa:2b:cd:9b:ac:18:a3:ba:13:6f:17:9e:73:7f:7e:
        c6:73:33:e8:4b:41:35:db:39:cf:90:52:16:91:25:da:fe:a0:
        5b:27:26:06:3f:f5:85:73:1c:94:be:e7:18:a9:01:4c:13:fa:
        b2:ad:7f:89:94:82:78:81:3f:ac:f5:d0:eb:dd:dc:5d:ce:d3:
        6b:0b:b8:c0:c1:d0:ad:de:ff:c8:a4:af:ac:09:6a:d8:25:48:
        08:3f
-----BEGIN CERTIFICATE-----
MIIClDCCAf2gAwIBAgIBAjANBgkqhkiG9w0BAQUFADBPMQswCQYDVQQGEwJSVTEQ
MA4GA1UECBMHVW5rbm93bjENMAsGA1UEChMESG9tZTEQMA4GA1UECxMHVW5rbm93
bjENMAsGA1UEAxMEbXlDQTAeFw0xMDAyMjQxMjEwNDlaFw0yMDAyMjIxMjEwNDla
MFQxCzAJBgNVBAYTAlJVMRAwDgYDVQQIEwdVbmtub3duMQ0wCwYDVQQKEwRIb21l
MRAwDgYDVQQLEwdVbmtub3duMRIwEAYDVQQDEwliYWxhbmNlcjEwgZ8wDQYJKoZI
hvcNAQEBBQADgY0AMIGJAoGBAJNnfCrGMscicuyOQE5LQuFXf9PGsRYMW0ompdm9
Y0ALZz4RkXWv6h5tp3IgKS+OyxQex92zkqBXEHRatgjbOwdJYJ8p2Hrn1V2iQCgN
Afzfa3oCrjxfPyYlzcjziwqDV2hK2WXvFomYJJ4M+uOSer8/3WujwZejy9ajVmuo
rINhAgMBAAGjezB5MAkGA1UdEwQCMAAwLAYJYIZIAYb4QgENBB8WHU9wZW5TU0wg
R2VuZXJhdGVkIENlcnRpZmljYXRlMB0GA1UdDgQWBBTfjrCdB7qzRoB5P9l6YboE
SatHdTAfBgNVHSMEGDAWgBR1hR/l+gJiW3/q9gRfdo7HMiz3bDANBgkqhkiG9w0B
AQUFAAOBgQBm6PJl3S64KRbKcfpPqOzg5aXZQ2ZcFKjzk6nqYNdHRnKcPRrlydv6
K82brBijuhNvF55zf37GczPoS0E12znPkFIWkSXa/qBbJyYGP/WFcxyUvucYqQFM
E/qyrX+JlIJ4gT+s9dDr3dxdztNrC7jAwdCt3v/IpK+sCWrYJUgIPw==
-----END CERTIFICATE-----
