Certificate:
    Data:
        Version: 3 (0x2)
        Serial Number: 3 (0x3)
        Signature Algorithm: sha1WithRSAEncryption
        Issuer: C=RU, ST=Unknown, O=Home, OU=Unknown, CN=myCA
        Validity
            Not Before: Feb 24 12:16:03 2010 GMT
            Not After : Feb 22 12:16:03 2020 GMT
        Subject: C=RU, ST=Unknown, O=Home, OU=Unknown, CN=lb-proto-admin
        Subject Public Key Info:
            Public Key Algorithm: rsaEncryption
            RSA Public Key: (1024 bit)
                Modulus (1024 bit):
                    00:88:15:3c:60:eb:04:3d:c4:3f:35:f0:1d:a2:bb:
                    58:2d:72:5d:15:26:6e:46:6f:0a:eb:b9:55:20:a9:
                    67:70:b7:d7:02:90:93:2e:48:34:20:c3:22:55:fe:
                    47:01:72:b8:ed:aa:95:fa:61:60:da:e4:65:1c:f0:
                    2d:5c:18:72:45:c0:30:b0:96:62:67:f6:c5:53:49:
                    a6:ee:23:9a:d1:da:8e:da:ce:26:27:15:93:4b:ac:
                    e3:ec:a9:c4:1d:c3:1e:9f:79:96:b7:36:4c:3a:03:
                    c7:73:00:6e:68:58:c7:d5:0b:16:fc:c9:39:d8:44:
                    97:9a:bc:cf:cb:d9:f2:c8:85
                Exponent: 65537 (0x10001)
        X509v3 extensions:
            X509v3 Basic Constraints: 
                CA:FALSE
            Netscape Comment: 
                OpenSSL Generated Certificate
            X509v3 Subject Key Identifier: 
                3E:FE:7D:24:8B:EF:A6:9C:5D:DA:0E:31:3B:4E:FF:52:B9:AE:DA:B6
            X509v3 Authority Key Identifier: 
                keyid:75:85:1F:E5:FA:02:62:5B:7F:EA:F6:04:5F:76:8E:C7:32:2C:F7:6C

    Signature Algorithm: sha1WithRSAEncryption
        af:dd:52:54:96:57:d8:77:d6:47:87:49:c3:89:05:10:d8:a8:
        5e:93:10:64:bb:67:99:ab:e5:16:1f:34:20:4a:42:29:0f:eb:
        33:cb:01:cb:61:40:c0:bf:ba:2e:6c:20:93:44:05:2d:72:a3:
        d3:bf:0f:6b:3d:3f:6c:bf:e9:ae:ad:23:d0:aa:f1:76:9b:9b:
        31:ed:28:2d:3b:88:1c:c3:72:39:30:d4:d7:e8:c9:e9:4a:23:
        5e:3c:34:80:57:e9:ed:31:7d:e1:cb:72:01:ff:81:c3:9d:3a:
        33:e4:91:15:95:69:83:1d:c8:0f:9f:63:d5:0b:64:36:6c:b2:
        9b:54
-----BEGIN CERTIFICATE-----
MIICmTCCAgKgAwIBAgIBAzANBgkqhkiG9w0BAQUFADBPMQswCQYDVQQGEwJSVTEQ
MA4GA1UECBMHVW5rbm93bjENMAsGA1UEChMESG9tZTEQMA4GA1UECxMHVW5rbm93
bjENMAsGA1UEAxMEbXlDQTAeFw0xMDAyMjQxMjE2MDNaFw0yMDAyMjIxMjE2MDNa
MFkxCzAJBgNVBAYTAlJVMRAwDgYDVQQIEwdVbmtub3duMQ0wCwYDVQQKEwRIb21l
MRAwDgYDVQQLEwdVbmtub3duMRcwFQYDVQQDEw5sYi1wcm90by1hZG1pbjCBnzAN
BgkqhkiG9w0BAQEFAAOBjQAwgYkCgYEAiBU8YOsEPcQ/NfAdortYLXJdFSZuRm8K
67lVIKlncLfXApCTLkg0IMMiVf5HAXK47aqV+mFg2uRlHPAtXBhyRcAwsJZiZ/bF
U0mm7iOa0dqO2s4mJxWTS6zj7KnEHcMen3mWtzZMOgPHcwBuaFjH1QsW/Mk52ESX
mrzPy9nyyIUCAwEAAaN7MHkwCQYDVR0TBAIwADAsBglghkgBhvhCAQ0EHxYdT3Bl
blNTTCBHZW5lcmF0ZWQgQ2VydGlmaWNhdGUwHQYDVR0OBBYEFD7+fSSL76acXdoO
MTtO/1K5rtq2MB8GA1UdIwQYMBaAFHWFH+X6AmJbf+r2BF92jscyLPdsMA0GCSqG
SIb3DQEBBQUAA4GBAK/dUlSWV9h31keHScOJBRDYqF6TEGS7Z5mr5RYfNCBKQikP
6zPLActhQMC/ui5sIJNEBS1yo9O/D2s9P2y/6a6tI9Cq8XabmzHtKC07iBzDcjkw
1NfoyelKI148NIBX6e0xfeHLcgH/gcOdOjPkkRWVaYMdyA+fY9ULZDZssptU
-----END CERTIFICATE-----
