Certificate:
    Data:
        Version: 3 (0x2)
        Serial Number: 4 (0x4)
        Signature Algorithm: sha1WithRSAEncryption
        Issuer: C=RU, ST=Unknown, O=Home, OU=Unknown, CN=myCA
        Validity
            Not Before: Feb 24 12:35:57 2010 GMT
            Not After : Feb 22 12:35:57 2020 GMT
        Subject: C=RU, ST=Unknown, O=Home, OU=Unknown, CN=lb-proto-admin
        Subject Public Key Info:
            Public Key Algorithm: rsaEncryption
            RSA Public Key: (512 bit)
                Modulus (512 bit):
                    00:a2:8d:d7:4b:42:0e:f8:7d:ef:71:73:a1:78:d5:
                    87:80:f8:bb:3e:0d:39:b1:02:3d:8b:27:0e:12:9d:
                    f1:02:ff:f2:b5:53:c2:6d:26:d8:cd:07:15:be:5f:
                    b9:18:23:87:25:4e:0b:e0:9c:32:49:a9:a7:dd:63:
                    bb:97:dc:da:5d
                Exponent: 65537 (0x10001)
        X509v3 extensions:
            X509v3 Basic Constraints: 
                CA:FALSE
            Netscape Comment: 
                OpenSSL Generated Certificate
            X509v3 Subject Key Identifier: 
                C4:00:A9:6F:2C:5E:F5:C5:1B:40:4F:59:08:54:64:98:4A:E1:09:69
            X509v3 Authority Key Identifier: 
                keyid:75:85:1F:E5:FA:02:62:5B:7F:EA:F6:04:5F:76:8E:C7:32:2C:F7:6C

    Signature Algorithm: sha1WithRSAEncryption
        29:d6:97:27:b4:22:49:22:15:d4:86:38:ee:48:aa:08:87:ac:
        44:b3:3a:81:68:56:13:ae:04:cf:dc:ae:ff:77:b7:aa:ca:ec:
        bc:64:33:53:8f:95:79:55:2f:40:48:16:b4:2e:66:66:29:5f:
        16:60:6f:a7:42:64:9a:5e:f6:a2:5a:db:8d:d2:fa:8d:cd:d2:
        5c:ae:17:a5:11:d4:62:af:95:3c:a9:bf:cd:f3:10:fc:99:cd:
        0f:4d:ca:11:a7:24:c0:4d:bf:3c:f4:c9:cf:9b:c0:10:cf:06:
        49:fa:18:d6:72:44:ec:21:c8:1c:88:19:24:4c:70:1e:20:16:
        a5:28
-----BEGIN CERTIFICATE-----
MIICVTCCAb6gAwIBAgIBBDANBgkqhkiG9w0BAQUFADBPMQswCQYDVQQGEwJSVTEQ
MA4GA1UECBMHVW5rbm93bjENMAsGA1UEChMESG9tZTEQMA4GA1UECxMHVW5rbm93
bjENMAsGA1UEAxMEbXlDQTAeFw0xMDAyMjQxMjM1NTdaFw0yMDAyMjIxMjM1NTda
MFkxCzAJBgNVBAYTAlJVMRAwDgYDVQQIEwdVbmtub3duMQ0wCwYDVQQKEwRIb21l
MRAwDgYDVQQLEwdVbmtub3duMRcwFQYDVQQDEw5sYi1wcm90by1hZG1pbjBcMA0G
CSqGSIb3DQEBAQUAA0sAMEgCQQCijddLQg74fe9xc6F41YeA+Ls+DTmxAj2LJw4S
nfEC//K1U8JtJtjNBxW+X7kYI4clTgvgnDJJqafdY7uX3NpdAgMBAAGjezB5MAkG
A1UdEwQCMAAwLAYJYIZIAYb4QgENBB8WHU9wZW5TU0wgR2VuZXJhdGVkIENlcnRp
ZmljYXRlMB0GA1UdDgQWBBTEAKlvLF71xRtAT1kIVGSYSuEJaTAfBgNVHSMEGDAW
gBR1hR/l+gJiW3/q9gRfdo7HMiz3bDANBgkqhkiG9w0BAQUFAAOBgQAp1pcntCJJ
IhXUhjjuSKoIh6xEszqBaFYTrgTP3K7/d7eqyuy8ZDNTj5V5VS9ASBa0LmZmKV8W
YG+nQmSaXvaiWtuN0vqNzdJcrhelEdRir5U8qb/N8xD8mc0PTcoRpyTATb889MnP
m8AQzwZJ+hjWckTsIcgciBkkTHAeIBalKA==
-----END CERTIFICATE-----
