Certificate:
    Data:
        Version: 3 (0x2)
        Serial Number: 5 (0x5)
        Signature Algorithm: sha1WithRSAEncryption
        Issuer: C=RU, ST=Unknown, O=Home, OU=Unknown, CN=myCA
        Validity
            Not Before: Mar 25 12:15:13 2010 GMT
            Not After : Mar 22 12:15:13 2020 GMT
        Subject: C=RU, ST=Unknown, O=Home, OU=Unknown, CN=superfly-server
        Subject Public Key Info:
            Public Key Algorithm: rsaEncryption
            RSA Public Key: (1024 bit)
                Modulus (1024 bit):
                    00:81:1c:71:f5:44:75:dc:06:d3:f4:e5:04:d6:12:
                    a0:49:71:87:74:7d:f7:0d:8f:1a:55:eb:16:67:4b:
                    1d:6d:14:2e:e5:33:10:70:c9:b8:93:5c:e2:e4:d6:
                    e8:a5:14:43:f5:16:47:00:b3:a4:fe:bc:87:9e:1c:
                    00:a4:18:d9:76:fe:06:b7:31:4f:5e:a5:d0:30:e3:
                    e2:d4:ef:35:01:23:a5:55:11:38:15:92:f5:9b:f3:
                    8e:47:50:4f:71:63:c0:98:1d:c5:c6:ec:fd:1a:03:
                    21:41:a9:c7:5f:65:5d:52:92:21:60:89:be:fe:6a:
                    67:5f:4f:6a:13:2e:c2:95:69
                Exponent: 65537 (0x10001)
        X509v3 extensions:
            X509v3 Basic Constraints: 
                CA:FALSE
            Netscape Comment: 
                OpenSSL Generated Certificate
            X509v3 Subject Key Identifier: 
                24:BD:EB:0A:57:AC:29:1D:FD:C8:E3:1A:4A:A5:C4:1E:CD:FA:27:47
            X509v3 Authority Key Identifier: 
                keyid:75:85:1F:E5:FA:02:62:5B:7F:EA:F6:04:5F:76:8E:C7:32:2C:F7:6C

    Signature Algorithm: sha1WithRSAEncryption
        a1:1a:8d:eb:ec:9c:53:9c:3f:11:e0:0b:95:8d:f7:2c:1d:de:
        65:79:7e:23:a3:a2:27:75:c8:ef:33:f1:ba:19:5e:7e:70:6b:
        ad:e5:36:9f:95:3a:33:29:2c:81:05:9f:70:bc:90:30:d5:92:
        f8:0f:ff:a5:1e:2d:30:95:cb:90:87:14:ba:a4:8e:0a:9b:be:
        0c:3d:2c:15:09:83:94:87:10:f4:05:67:56:8b:9a:da:55:42:
        29:88:d1:77:ba:86:8e:39:b7:32:c7:de:76:29:97:63:25:fc:
        f9:4a:40:53:46:63:03:2f:00:08:05:ea:b6:9a:b2:98:32:e3:
        d7:1c
-----BEGIN CERTIFICATE-----
MIICmjCCAgOgAwIBAgIBBTANBgkqhkiG9w0BAQUFADBPMQswCQYDVQQGEwJSVTEQ
MA4GA1UECBMHVW5rbm93bjENMAsGA1UEChMESG9tZTEQMA4GA1UECxMHVW5rbm93
bjENMAsGA1UEAxMEbXlDQTAeFw0xMDAzMjUxMjE1MTNaFw0yMDAzMjIxMjE1MTNa
MFoxCzAJBgNVBAYTAlJVMRAwDgYDVQQIEwdVbmtub3duMQ0wCwYDVQQKEwRIb21l
MRAwDgYDVQQLEwdVbmtub3duMRgwFgYDVQQDEw9zdXBlcmZseS1zZXJ2ZXIwgZ8w
DQYJKoZIhvcNAQEBBQADgY0AMIGJAoGBAIEccfVEddwG0/TlBNYSoElxh3R99w2P
GlXrFmdLHW0ULuUzEHDJuJNc4uTW6KUUQ/UWRwCzpP68h54cAKQY2Xb+BrcxT16l
0DDj4tTvNQEjpVUROBWS9ZvzjkdQT3FjwJgdxcbs/RoDIUGpx19lXVKSIWCJvv5q
Z19PahMuwpVpAgMBAAGjezB5MAkGA1UdEwQCMAAwLAYJYIZIAYb4QgENBB8WHU9w
ZW5TU0wgR2VuZXJhdGVkIENlcnRpZmljYXRlMB0GA1UdDgQWBBQkvesKV6wpHf3I
4xpKpcQezfonRzAfBgNVHSMEGDAWgBR1hR/l+gJiW3/q9gRfdo7HMiz3bDANBgkq
hkiG9w0BAQUFAAOBgQChGo3r7JxTnD8R4AuVjfcsHd5leX4jo6IndcjvM/G6GV5+
cGut5TaflTozKSyBBZ9wvJAw1ZL4D/+lHi0wlcuQhxS6pI4Km74MPSwVCYOUhxD0
BWdWi5raVUIpiNF3uoaOObcyx952KZdjJfz5SkBTRmMDLwAIBeq2mrKYMuPXHA==
-----END CERTIFICATE-----
