Certificate:
    Data:
        Version: 3 (0x2)
        Serial Number: 6 (0x6)
        Signature Algorithm: sha1WithRSAEncryption
        Issuer: C=RU, ST=Unknown, O=Home, OU=Unknown, CN=myCA
        Validity
            Not Before: Mar 25 12:22:52 2010 GMT
            Not After : Mar 22 12:22:52 2020 GMT
        Subject: C=RU, ST=Unknown, O=Home, OU=Unknown, CN=superfly-demo
        Subject Public Key Info:
            Public Key Algorithm: rsaEncryption
            RSA Public Key: (1024 bit)
                Modulus (1024 bit):
                    00:8e:dc:d2:b5:01:9b:cf:ec:c5:77:04:28:40:53:
                    69:83:85:20:c8:62:db:b0:91:5c:71:a5:f2:e9:ce:
                    64:66:c3:9e:0f:70:4d:b9:67:0d:c7:2c:e1:fe:88:
                    85:c1:de:69:35:24:25:c4:2d:17:ed:dc:ba:5c:08:
                    2f:bd:4b:cc:7e:18:ef:4f:a2:02:9a:b8:92:b3:46:
                    ff:53:c6:92:3f:24:3b:ac:fa:ff:15:f0:a3:de:67:
                    91:5a:71:51:ba:47:96:2c:bf:0c:77:11:c3:7d:bf:
                    b1:6e:64:33:36:c7:ca:29:54:ca:8f:8d:3b:4d:ee:
                    b3:bb:f5:48:57:c9:3a:33:3d
                Exponent: 65537 (0x10001)
        X509v3 extensions:
            X509v3 Basic Constraints: 
                CA:FALSE
            Netscape Comment: 
                OpenSSL Generated Certificate
            X509v3 Subject Key Identifier: 
                11:A7:BB:55:2B:F1:4A:93:69:76:DA:F8:65:8A:2B:D5:7E:F9:12:7B
            X509v3 Authority Key Identifier: 
                keyid:75:85:1F:E5:FA:02:62:5B:7F:EA:F6:04:5F:76:8E:C7:32:2C:F7:6C

    Signature Algorithm: sha1WithRSAEncryption
        12:68:f9:d1:5d:7e:22:f5:9a:e8:fc:ab:cd:e3:72:73:72:7c:
        70:05:00:7d:24:37:fb:34:9b:ad:2b:9c:9d:9c:02:e1:33:27:
        e1:17:84:92:09:11:87:ca:00:f9:05:a8:9f:de:90:69:6e:84:
        7d:fc:c7:df:12:e0:73:81:c9:01:e1:67:30:2f:f2:b9:20:68:
        a7:59:fd:75:ce:f5:f0:d7:cc:96:83:3d:78:1e:e3:cb:29:a3:
        53:12:ac:07:8b:3f:78:fd:ff:2b:3a:e7:e8:06:b8:28:2e:b9:
        c9:30:7b:70:5b:e2:30:d2:36:e8:08:2d:87:c7:00:a6:28:34:
        cd:65
-----BEGIN CERTIFICATE-----
MIICmDCCAgGgAwIBAgIBBjANBgkqhkiG9w0BAQUFADBPMQswCQYDVQQGEwJSVTEQ
MA4GA1UECBMHVW5rbm93bjENMAsGA1UEChMESG9tZTEQMA4GA1UECxMHVW5rbm93
bjENMAsGA1UEAxMEbXlDQTAeFw0xMDAzMjUxMjIyNTJaFw0yMDAzMjIxMjIyNTJa
MFgxCzAJBgNVBAYTAlJVMRAwDgYDVQQIEwdVbmtub3duMQ0wCwYDVQQKEwRIb21l
MRAwDgYDVQQLEwdVbmtub3duMRYwFAYDVQQDEw1zdXBlcmZseS1kZW1vMIGfMA0G
CSqGSIb3DQEBAQUAA4GNADCBiQKBgQCO3NK1AZvP7MV3BChAU2mDhSDIYtuwkVxx
pfLpzmRmw54PcE25Zw3HLOH+iIXB3mk1JCXELRft3LpcCC+9S8x+GO9PogKauJKz
Rv9TxpI/JDus+v8V8KPeZ5FacVG6R5Ysvwx3EcN9v7FuZDM2x8opVMqPjTtN7rO7
9UhXyTozPQIDAQABo3sweTAJBgNVHRMEAjAAMCwGCWCGSAGG+EIBDQQfFh1PcGVu
U1NMIEdlbmVyYXRlZCBDZXJ0aWZpY2F0ZTAdBgNVHQ4EFgQUEae7VSvxSpNpdtr4
ZYor1X75EnswHwYDVR0jBBgwFoAUdYUf5foCYlt/6vYEX3aOxzIs92wwDQYJKoZI
hvcNAQEFBQADgYEAEmj50V1+IvWa6PyrzeNyc3J8cAUAfSQ3+zSbrSucnZwC4TMn
4ReEkgkRh8oA+QWon96QaW6EffzH3xLgc4HJAeFnMC/yuSBop1n9dc718NfMloM9
eB7jyymjUxKsB4s/eP3/Kzrn6Aa4KC65yTB7cFviMNI26Agth8cApig0zWU=
-----END CERTIFICATE-----
