Certificate:
    Data:
        Version: 3 (0x2)
        Serial Number: 7 (0x7)
        Signature Algorithm: sha1WithRSAEncryption
        Issuer: C=RU, ST=Unknown, O=Home, OU=Unknown, CN=myCA
        Validity
            Not Before: Mar 25 12:23:14 2010 GMT
            Not After : Mar 22 12:23:14 2020 GMT
        Subject: C=RU, ST=Unknown, O=Home, OU=Unknown, CN=paynet-local
        Subject Public Key Info:
            Public Key Algorithm: rsaEncryption
            RSA Public Key: (1024 bit)
                Modulus (1024 bit):
                    00:86:83:be:2d:e9:84:7c:16:e3:71:b3:29:53:db:
                    5c:2f:4d:dd:e1:e8:fb:fa:dc:48:80:5d:b5:13:6e:
                    f6:6b:9d:ca:47:77:71:a4:b0:4f:1d:c5:c6:de:b8:
                    21:34:1f:74:b0:9b:b2:ac:e4:f9:09:6d:6b:e4:a3:
                    fb:3c:bc:c7:d4:29:55:58:3b:50:8c:50:ec:bc:55:
                    b1:1e:bd:27:b1:fd:fa:0f:52:51:d0:4c:fc:72:24:
                    bf:e0:03:db:fb:da:e5:ef:07:83:8a:35:cf:fb:41:
                    23:c6:49:bb:b8:09:95:4f:22:d1:5f:52:6d:af:02:
                    48:c2:e0:92:97:57:4f:82:a5
                Exponent: 65537 (0x10001)
        X509v3 extensions:
            X509v3 Basic Constraints: 
                CA:FALSE
            Netscape Comment: 
                OpenSSL Generated Certificate
            X509v3 Subject Key Identifier: 
                B8:CD:BA:EF:4F:01:52:69:3F:DB:21:1E:AD:F5:54:AB:DE:6B:EF:F1
            X509v3 Authority Key Identifier: 
                keyid:75:85:1F:E5:FA:02:62:5B:7F:EA:F6:04:5F:76:8E:C7:32:2C:F7:6C

    Signature Algorithm: sha1WithRSAEncryption
        47:7c:99:59:bb:50:2d:8f:29:8a:92:60:df:26:82:39:ee:68:
        eb:c8:12:81:fc:f5:d2:6c:bb:a7:50:2e:e3:bd:f2:3f:d9:9a:
        43:2a:5d:14:60:48:f1:d2:ea:af:ac:7a:02:39:16:64:0f:c2:
        51:2d:f0:85:04:34:09:ab:56:3c:18:d6:3a:bc:67:d9:10:1e:
        c4:9c:a0:93:b0:eb:e0:98:e7:51:08:5a:16:4d:56:8d:36:12:
        cd:15:6b:ea:8a:f6:f0:f8:f8:08:e4:d2:12:19:8a:d5:a5:37:
        22:cd:d1:19:37:a8:5f:9b:7b:98:db:56:21:45:0d:fa:2a:4c:
        fc:3f
-----BEGIN CERTIFICATE-----
MIIClzCCAgCgAwIBAgIBBzANBgkqhkiG9w0BAQUFADBPMQswCQYDVQQGEwJSVTEQ
MA4GA1UECBMHVW5rbm93bjENMAsGA1UEChMESG9tZTEQMA4GA1UECxMHVW5rbm93
bjENMAsGA1UEAxMEbXlDQTAeFw0xMDAzMjUxMjIzMTRaFw0yMDAzMjIxMjIzMTRa
MFcxCzAJBgNVBAYTAlJVMRAwDgYDVQQIEwdVbmtub3duMQ0wCwYDVQQKEwRIb21l
MRAwDgYDVQQLEwdVbmtub3duMRUwEwYDVQQDEwxwYXluZXQtbG9jYWwwgZ8wDQYJ
KoZIhvcNAQEBBQADgY0AMIGJAoGBAIaDvi3phHwW43GzKVPbXC9N3eHo+/rcSIBd
tRNu9mudykd3caSwTx3Fxt64ITQfdLCbsqzk+Qlta+Sj+zy8x9QpVVg7UIxQ7LxV
sR69J7H9+g9SUdBM/HIkv+AD2/va5e8Hg4o1z/tBI8ZJu7gJlU8i0V9Sba8CSMLg
kpdXT4KlAgMBAAGjezB5MAkGA1UdEwQCMAAwLAYJYIZIAYb4QgENBB8WHU9wZW5T
U0wgR2VuZXJhdGVkIENlcnRpZmljYXRlMB0GA1UdDgQWBBS4zbrvTwFSaT/bIR6t
9VSr3mvv8TAfBgNVHSMEGDAWgBR1hR/l+gJiW3/q9gRfdo7HMiz3bDANBgkqhkiG
9w0BAQUFAAOBgQBHfJlZu1AtjymKkmDfJoI57mjryBKB/PXSbLunUC7jvfI/2ZpD
Kl0UYEjx0uqvrHoCORZkD8JRLfCFBDQJq1Y8GNY6vGfZEB7EnKCTsOvgmOdRCFoW
TVaNNhLNFWvqivbw+PgI5NISGYrVpTcizdEZN6hfm3uY21YhRQ36Kkz8Pw==
-----END CERTIFICATE-----
