Certificate:
    Data:
        Version: 3 (0x2)
        Serial Number: 8 (0x8)
        Signature Algorithm: sha1WithRSAEncryption
        Issuer: C=RU, ST=Unknown, O=Home, OU=Unknown, CN=myCA
        Validity
            Not Before: Mar 25 12:30:13 2010 GMT
            Not After : Mar 22 12:30:13 2020 GMT
        Subject: C=RU, ST=Unknown, O=Home, OU=Unknown, CN=jira
        Subject Public Key Info:
            Public Key Algorithm: rsaEncryption
            RSA Public Key: (1024 bit)
                Modulus (1024 bit):
                    00:8f:a0:2c:0b:d1:e3:ce:2a:00:fe:ea:04:c0:06:
                    36:19:4b:56:d7:f8:69:c1:d4:d3:11:d0:01:38:d0:
                    a5:87:5e:0d:b6:06:2e:53:2a:71:c7:b1:d5:bf:47:
                    01:0c:33:5c:36:8d:10:40:3d:04:c2:88:8e:c4:8e:
                    00:36:05:17:cc:ab:0b:03:59:00:b3:92:da:50:21:
                    6e:4b:98:70:57:bd:50:f4:1f:0f:ec:e9:bc:40:a5:
                    57:60:6d:8f:56:1e:48:aa:cd:2e:2e:49:cd:b4:8c:
                    8f:52:e5:1c:2c:dc:fb:50:9f:9a:57:d4:00:fc:a8:
                    cf:27:6a:0c:26:61:9d:87:69
                Exponent: 65537 (0x10001)
        X509v3 extensions:
            X509v3 Basic Constraints: 
                CA:FALSE
            Netscape Comment: 
                OpenSSL Generated Certificate
            X509v3 Subject Key Identifier: 
                8F:19:E0:45:4E:57:AD:EF:4B:A6:2A:67:79:A9:12:FF:17:7B:D8:C6
            X509v3 Authority Key Identifier: 
                keyid:75:85:1F:E5:FA:02:62:5B:7F:EA:F6:04:5F:76:8E:C7:32:2C:F7:6C

    Signature Algorithm: sha1WithRSAEncryption
        de:51:27:2c:e2:27:2b:ca:4b:a4:09:f3:9a:0c:83:13:39:08:
        b8:df:07:20:71:60:64:a9:f0:bb:5f:e0:e9:20:c9:10:10:31:
        3c:2e:3d:1a:b1:4f:b8:4d:98:d4:ef:da:9f:c9:4c:cb:46:fd:
        89:5d:76:60:76:cb:34:e9:cc:14:35:3b:0e:37:9e:5b:4a:bf:
        48:4f:74:48:f9:1f:dd:e1:98:3b:cd:1b:f3:e6:49:6e:87:ab:
        cc:14:f6:a1:ce:c7:0e:ad:c5:54:6e:a8:7b:db:ee:c2:76:a8:
        ef:bc:fd:e7:c4:d6:d6:7d:c0:4e:65:50:81:83:66:43:96:c6:
        e7:45
-----BEGIN CERTIFICATE-----
MIICjzCCAfigAwIBAgIBCDANBgkqhkiG9w0BAQUFADBPMQswCQYDVQQGEwJSVTEQ
MA4GA1UECBMHVW5rbm93bjENMAsGA1UEChMESG9tZTEQMA4GA1UECxMHVW5rbm93
bjENMAsGA1UEAxMEbXlDQTAeFw0xMDAzMjUxMjMwMTNaFw0yMDAzMjIxMjMwMTNa
ME8xCzAJBgNVBAYTAlJVMRAwDgYDVQQIEwdVbmtub3duMQ0wCwYDVQQKEwRIb21l
MRAwDgYDVQQLEwdVbmtub3duMQ0wCwYDVQQDEwRqaXJhMIGfMA0GCSqGSIb3DQEB
AQUAA4GNADCBiQKBgQCPoCwL0ePOKgD+6gTABjYZS1bX+GnB1NMR0AE40KWHXg22
Bi5TKnHHsdW/RwEMM1w2jRBAPQTCiI7EjgA2BRfMqwsDWQCzktpQIW5LmHBXvVD0
Hw/s6bxApVdgbY9WHkiqzS4uSc20jI9S5Rws3PtQn5pX1AD8qM8nagwmYZ2HaQID
AQABo3sweTAJBgNVHRMEAjAAMCwGCWCGSAGG+EIBDQQfFh1PcGVuU1NMIEdlbmVy
YXRlZCBDZXJ0aWZpY2F0ZTAdBgNVHQ4EFgQUjxngRU5Xre9LpipneakS/xd72MYw
HwYDVR0jBBgwFoAUdYUf5foCYlt/6vYEX3aOxzIs92wwDQYJKoZIhvcNAQEFBQAD
gYEA3lEnLOInK8pLpAnzmgyDEzkIuN8HIHFgZKnwu1/g6SDJEBAxPC49GrFPuE2Y
1O/an8lMy0b9iV12YHbLNOnMFDU7DjeeW0q/SE90SPkf3eGYO80b8+ZJboerzBT2
oc7HDq3FVG6oe9vuwnao77z958TW1n3ATmVQgYNmQ5bG50U=
-----END CERTIFICATE-----
